target datalayout = "e-m:e-p270:32:32-p271:32:32-p272:64:64-i64:64-i128:128-f80:128-n8:16:32:64-S128"
target triple = "x86_64-pc-linux-gnu"

%struct.sockaddr_in = type { i16, i16, %struct.in_addr, [8 x i8] }
%struct.in_addr = type { i32 }

; Function Attrs: mustprogress uwtable
define noundef i32 @_ZN3zmq12udp_engine_t23set_udp_multicast_ifaceEibPKNS_13udp_address_tE(ptr noundef nonnull align 8 dereferenceable(17880) %0, i32 noundef %1, i1 noundef zeroext %2, ptr noundef %3) #0 align 2 {
  %5 = alloca ptr, align 8
  %6 = alloca i32, align 4
  %7 = alloca i8, align 1
  %8 = alloca ptr, align 8
  %9 = alloca i32, align 4
  %10 = alloca i32, align 4
  %11 = alloca %struct.in_addr, align 4
  store ptr %0, ptr %5, align 8, !tbaa !3
  store i32 %1, ptr %6, align 4, !tbaa !83
  %12 = zext i1 %2 to i8
  store i8 %12, ptr %7, align 1, !tbaa !86
  store ptr %3, ptr %8, align 8, !tbaa !91
  call void @llvm.lifetime.start.p0(i64 4, ptr %9) #21
  store i32 0, ptr %9, align 4, !tbaa !83
  %13 = load i8, ptr %7, align 1, !tbaa !86, !range !77, !noundef !78
  %14 = trunc i8 %13 to i1
  br i1 %14, label %15, label %24

15:                                               ; preds = %4
  call void @llvm.lifetime.start.p0(i64 4, ptr %10) #21
  %16 = load ptr, ptr %8, align 8, !tbaa !91
  %17 = call noundef i32 @_ZNK3zmq13udp_address_t7bind_ifEv(ptr noundef nonnull align 8 dereferenceable(104) %16)
  store i32 %17, ptr %10, align 4, !tbaa !83
  %18 = load i32, ptr %10, align 4, !tbaa !83
  %19 = icmp sgt i32 %18, 0
  br i1 %19, label %20, label %23

20:                                               ; preds = %15
  %21 = load i32, ptr %6, align 4, !tbaa !83
  %22 = call i32 @setsockopt(i32 noundef %21, i32 noundef 41, i32 noundef 17, ptr noundef %10, i32 noundef 4) #21
  store i32 %22, ptr %9, align 4, !tbaa !83
  br label %23

23:                                               ; preds = %20, %15
  call void @llvm.lifetime.end.p0(i64 4, ptr %10) #21
  br label %35

24:                                               ; preds = %4
  call void @llvm.lifetime.start.p0(i64 4, ptr %11) #21
  %25 = load ptr, ptr %8, align 8, !tbaa !91
  %26 = call noundef ptr @_ZNK3zmq13udp_address_t9bind_addrEv(ptr noundef nonnull align 8 dereferenceable(104) %25)
  %27 = getelementptr inbounds nuw %struct.sockaddr_in, ptr %26, i32 0, i32 2
  call void @llvm.memcpy.p0.p0.i64(ptr align 4 %11, ptr align 4 %27, i64 4, i1 false), !tbaa.struct !104
  %28 = getelementptr inbounds nuw %struct.in_addr, ptr %11, i32 0, i32 0
  %29 = load i32, ptr %28, align 4, !tbaa !105
  %30 = icmp ne i32 %29, 0
  br i1 %30, label %31, label %34

31:                                               ; preds = %24
  %32 = load i32, ptr %6, align 4, !tbaa !83
  %33 = call i32 @setsockopt(i32 noundef %32, i32 noundef 0, i32 noundef 32, ptr noundef %11, i32 noundef 4) #21
  store i32 %33, ptr %9, align 4, !tbaa !83
  br label %34

34:                                               ; preds = %31, %24
  call void @llvm.lifetime.end.p0(i64 4, ptr %11) #21
  br label %35

35:                                               ; preds = %34, %23
  %36 = load i32, ptr %6, align 4, !tbaa !83
  %37 = load i32, ptr %9, align 4, !tbaa !83
  call void @_ZN3zmq29assert_success_or_recoverableEii(i32 noundef %36, i32 noundef %37)
  %38 = load i32, ptr %9, align 4, !tbaa !83
  call void @llvm.lifetime.end.p0(i64 4, ptr %9) #21
  ret i32 %38
}