; Function Attrs: mustprogress uwtable
define noundef i32 @_ZN3zmq12udp_engine_t23set_udp_multicast_ifaceEibPKNS_13udp_address_tE(ptr noundef nonnull readnone align 8 captures(none) dereferenceable(17880) %0, i32 noundef %1, i1 noundef zeroext %2, ptr noundef %3) local_unnamed_addr #0 align 2 {
  %5 = alloca i32, align 4
  %6 = alloca %struct.in_addr, align 4
  br i1 %2, label %7, label %13

7:                                                ; preds = %4
  call void @llvm.lifetime.start.p0(i64 4, ptr nonnull %5) #23
  %8 = tail call noundef i32 @_ZNK3zmq13udp_address_t7bind_ifEv(ptr noundef nonnull align 8 dereferenceable(104) %3)
  store i32 %8, ptr %5, align 4, !tbaa !76
  %9 = icmp sgt i32 %8, 0
  br i1 %9, label %10, label %12

10:                                               ; preds = %7
  %11 = call i32 @setsockopt(i32 noundef %1, i32 noundef 41, i32 noundef 17, ptr noundef nonnull %5, i32 noundef 4) #23
  br label %12

12:                                               ; preds = %10, %7
  %.0 = phi i32 [ %11, %10 ], [ 0, %7 ]
  call void @llvm.lifetime.end.p0(i64 4, ptr nonnull %5) #23
  br label %20

13:                                               ; preds = %4
  call void @llvm.lifetime.start.p0(i64 4, ptr nonnull %6) #23
  %14 = tail call noundef ptr @_ZNK3zmq13udp_address_t9bind_addrEv(ptr noundef nonnull align 8 dereferenceable(104) %3)
  %15 = getelementptr inbounds nuw i8, ptr %14, i64 4
  %16 = load i32, ptr %15, align 4, !tbaa !76
  store i32 %16, ptr %6, align 4, !tbaa !76
  %.not = icmp eq i32 %16, 0
  br i1 %.not, label %19, label %17

17:                                               ; preds = %13
  %18 = call i32 @setsockopt(i32 noundef %1, i32 noundef 0, i32 noundef 32, ptr noundef nonnull %6, i32 noundef 4) #23
  br label %19

19:                                               ; preds = %17, %13
  %.2 = phi i32 [ %18, %17 ], [ 0, %13 ]
  call void @llvm.lifetime.end.p0(i64 4, ptr nonnull %6) #23
  br label %20

20:                                               ; preds = %19, %12
  %.1 = phi i32 [ %.0, %12 ], [ %.2, %19 ]
  call void @_ZN3zmq29assert_success_or_recoverableEii(i32 noundef %1, i32 noundef %.1)
  ret i32 %.1
}